; Function Attrs: inlinehint mustprogress nounwind uwtable
define internal fastcc void @_ZN3ue212_GLOBAL__N_19ClassInfoD2Ev(ptr noundef nonnull readonly align 8 dereferenceable(156) %0) unnamed_addr #4 align 2 personality ptr @__gxx_personality_v0 {
  %2 = getelementptr inbounds nuw i8, ptr %0, i64 56
  %3 = load i64, ptr %2, align 8
  %.not.i.i.i.i = icmp eq i64 %3, 0
  br i1 %.not.i.i.i.i, label %_ZN3ue211flat_detail9flat_baseIjSt4lessIjESaIjEED2Ev.exit, label %4

4:                                                ; preds = %1
  %5 = getelementptr inbounds nuw i8, ptr %0, i64 40
  %6 = load ptr, ptr %5, align 8
  %7 = getelementptr inbounds nuw i8, ptr %0, i64 64
  %8 = icmp eq ptr %7, %6
  br i1 %8, label %_ZN3ue211flat_detail9flat_baseIjSt4lessIjESaIjEED2Ev.exit, label %9

9:                                                ; preds = %4
  tail call void @_ZdlPv(ptr noundef %6) #24
  br label %_ZN3ue211flat_detail9flat_baseIjSt4lessIjESaIjEED2Ev.exit

_ZN3ue211flat_detail9flat_baseIjSt4lessIjESaIjEED2Ev.exit: ; preds = %1, %4, %9
  %10 = getelementptr inbounds nuw i8, ptr %0, i64 16
  %11 = load i64, ptr %10, align 8
  %.not.i.i.i.i1 = icmp eq i64 %11, 0
  br i1 %.not.i.i.i.i1, label %_ZN3ue211flat_detail9flat_baseIjSt4lessIjESaIjEED2Ev.exit2, label %12

12:                                               ; preds = %_ZN3ue211flat_detail9flat_baseIjSt4lessIjESaIjEED2Ev.exit
  %13 = load ptr, ptr %0, align 8
  %14 = getelementptr inbounds nuw i8, ptr %0, i64 24
  %15 = icmp eq ptr %14, %13
  br i1 %15, label %_ZN3ue211flat_detail9flat_baseIjSt4lessIjESaIjEED2Ev.exit2, label %16

16:                                               ; preds = %12
  tail call void @_ZdlPv(ptr noundef %13) #24
  br label %_ZN3ue211flat_detail9flat_baseIjSt4lessIjESaIjEED2Ev.exit2

_ZN3ue211flat_detail9flat_baseIjSt4lessIjESaIjEED2Ev.exit2: ; preds = %_ZN3ue211flat_detail9flat_baseIjSt4lessIjESaIjEED2Ev.exit, %12, %16
  ret void
}